target datalayout = "e-m:e-p270:32:32-p271:32:32-p272:64:64-i64:64-i128:128-f80:128-n8:16:32:64-S128"
target triple = "x86_64-pc-linux-gnu"

%struct.mi_heap_s = type { ptr, [129 x ptr], [75 x %struct.mi_page_queue_s], ptr, i64, i64, [2 x i64], %struct.mi_random_cxt_s, i64, i64, i64, ptr, i8 }
%struct.mi_page_queue_s = type { ptr, ptr, i64 }
%struct.mi_random_cxt_s = type { [16 x i32], [16 x i32], i32 }
%struct.mi_block_s = type { i64 }
%struct.mi_tld_s = type { i64, i8, ptr, ptr, %struct.mi_segments_tld_s, %struct.mi_os_tld_s, %struct.mi_stats_s }
%struct.mi_segments_tld_s = type { [36 x %struct.mi_span_queue_s], i64, i64, i64, i64, ptr, ptr }
%struct.mi_span_queue_s = type { ptr, ptr, i64 }
%struct.mi_os_tld_s = type { i64, ptr }
%struct.mi_stats_s = type { %struct.mi_stat_count_s, %struct.mi_stat_count_s, %struct.mi_stat_count_s, %struct.mi_stat_count_s, %struct.mi_stat_count_s, %struct.mi_stat_count_s, %struct.mi_stat_count_s, %struct.mi_stat_count_s, %struct.mi_stat_count_s, %struct.mi_stat_count_s, %struct.mi_stat_count_s, %struct.mi_stat_count_s, %struct.mi_stat_count_s, %struct.mi_stat_count_s, %struct.mi_stat_counter_s, %struct.mi_stat_counter_s, %struct.mi_stat_counter_s, %struct.mi_stat_counter_s, %struct.mi_stat_counter_s, %struct.mi_stat_counter_s, %struct.mi_stat_counter_s, %struct.mi_stat_counter_s }
%struct.mi_stat_count_s = type { i64, i64, i64, i64 }
%struct.mi_stat_counter_s = type { i64, i64 }

@_mi_heap_empty = external constant %struct.mi_heap_s, align 8
@deferred_free = internal global ptr null, align 8
@deferred_arg = internal global ptr null, align 8
@.str = private unnamed_addr constant [39 x i8] c"unable to allocate memory (%zu bytes)\0A\00", align 1
@_mi_heap_default = external thread_local(localdynamic) global ptr, align 8

; Function Attrs: inlinehint nounwind uwtable
define internal void @mi_block_set_nextx(ptr noundef %0, ptr noundef %1, ptr noundef %2, ptr noundef %3) #1 {
  %5 = alloca ptr, align 8
  %6 = alloca ptr, align 8
  %7 = alloca ptr, align 8
  %8 = alloca ptr, align 8
  store ptr %0, ptr %5, align 8, !tbaa !53
  store ptr %1, ptr %6, align 8, !tbaa !39
  store ptr %2, ptr %7, align 8, !tbaa !39
  store ptr %3, ptr %8, align 8, !tbaa !54
  %9 = load ptr, ptr %7, align 8, !tbaa !39
  %10 = ptrtoint ptr %9 to i64
  %11 = load ptr, ptr %6, align 8, !tbaa !39
  %12 = getelementptr inbounds nuw %struct.mi_block_s, ptr %11, i32 0, i32 0
  store i64 %10, ptr %12, align 8, !tbaa !56
  ret void
}

; Function Attrs: inlinehint nounwind uwtable
define internal ptr @mi_block_nextx(ptr noundef %0, ptr noundef %1, ptr noundef %2) #1 {
  %4 = alloca ptr, align 8
  %5 = alloca ptr, align 8
  %6 = alloca ptr, align 8
  store ptr %0, ptr %4, align 8, !tbaa !53
  store ptr %1, ptr %5, align 8, !tbaa !39
  store ptr %2, ptr %6, align 8, !tbaa !54
  %7 = load ptr, ptr %5, align 8, !tbaa !39
  %8 = getelementptr inbounds nuw %struct.mi_block_s, ptr %7, i32 0, i32 0
  %9 = load i64, ptr %8, align 8, !tbaa !56
  %10 = inttoptr i64 %9 to ptr
  ret ptr %10
}

; Function Attrs: nounwind uwtable
define hidden void @_mi_heap_delayed_free(ptr noundef %0) #0 {
  %2 = alloca ptr, align 8
  %3 = alloca ptr, align 8
  %4 = alloca ptr, align 8
  %5 = alloca ptr, align 8
  %6 = alloca i8, align 1
  %7 = alloca ptr, align 8
  %8 = alloca ptr, align 8
  %9 = alloca ptr, align 8
  %10 = alloca ptr, align 8
  %11 = alloca i8, align 1
  store ptr %0, ptr %2, align 8, !tbaa !12
  call void @llvm.lifetime.start.p0(i64 8, ptr %3) #6
  %12 = load ptr, ptr %2, align 8, !tbaa !12
  %13 = getelementptr inbounds nuw %struct.mi_heap_s, ptr %12, i32 0, i32 3
  %14 = load atomic i64, ptr %13 monotonic, align 8
  store i64 %14, ptr %4, align 8
  %15 = load ptr, ptr %4, align 8, !tbaa !39
  store ptr %15, ptr %3, align 8, !tbaa !39
  br label %16

16:                                               ; preds = %35, %1
  %17 = load ptr, ptr %3, align 8, !tbaa !39
  %18 = icmp ne ptr %17, null
  br i1 %18, label %19, label %33

19:                                               ; preds = %16
  %20 = load ptr, ptr %2, align 8, !tbaa !12
  %21 = getelementptr inbounds nuw %struct.mi_heap_s, ptr %20, i32 0, i32 3
  store ptr null, ptr %5, align 8, !tbaa !39
  %22 = load i64, ptr %3, align 8
  %23 = load i64, ptr %5, align 8
  %24 = cmpxchg weak ptr %21, i64 %22, i64 %23 acq_rel acquire, align 8
  %25 = extractvalue { i64, i1 } %24, 0
  %26 = extractvalue { i64, i1 } %24, 1
  br i1 %26, label %28, label %27

27:                                               ; preds = %19
  store i64 %25, ptr %3, align 8
  br label %28

28:                                               ; preds = %27, %19
  %29 = zext i1 %26 to i8
  store i8 %29, ptr %6, align 1, !tbaa !28
  %30 = load i8, ptr %6, align 1, !tbaa !28, !range !30, !noundef !31
  %31 = trunc i8 %30 to i1
  %32 = xor i1 %31, true
  br label %33

33:                                               ; preds = %28, %16
  %34 = phi i1 [ false, %16 ], [ %32, %28 ]
  br i1 %34, label %35, label %36

35:                                               ; preds = %33
  br label %16, !llvm.loop !50

36:                                               ; preds = %33
  br label %37

37:                                               ; preds = %77, %36
  %38 = load ptr, ptr %3, align 8, !tbaa !39
  %39 = icmp ne ptr %38, null
  br i1 %39, label %40, label %79

40:                                               ; preds = %37
  call void @llvm.lifetime.start.p0(i64 8, ptr %7) #6
  %41 = load ptr, ptr %2, align 8, !tbaa !12
  %42 = load ptr, ptr %3, align 8, !tbaa !39
  %43 = load ptr, ptr %2, align 8, !tbaa !12
  %44 = getelementptr inbounds nuw %struct.mi_heap_s, ptr %43, i32 0, i32 6
  %45 = getelementptr inbounds [2 x i64], ptr %44, i64 0, i64 0
  %46 = call ptr @mi_block_nextx(ptr noundef %41, ptr noundef %42, ptr noundef %45)
  store ptr %46, ptr %7, align 8, !tbaa !39
  %47 = load ptr, ptr %3, align 8, !tbaa !39
  %48 = call zeroext i1 @_mi_free_delayed_block(ptr noundef %47)
  br i1 %48, label %77, label %49

49:                                               ; preds = %40
  call void @llvm.lifetime.start.p0(i64 8, ptr %8) #6
  %50 = load ptr, ptr %2, align 8, !tbaa !12
  %51 = getelementptr inbounds nuw %struct.mi_heap_s, ptr %50, i32 0, i32 3
  %52 = load atomic i64, ptr %51 monotonic, align 8
  store i64 %52, ptr %9, align 8
  %53 = load ptr, ptr %9, align 8, !tbaa !39
  store ptr %53, ptr %8, align 8, !tbaa !39
  br label %54

54:                                               ; preds = %71, %49
  %55 = load ptr, ptr %2, align 8, !tbaa !12
  %56 = load ptr, ptr %3, align 8, !tbaa !39
  %57 = load ptr, ptr %8, align 8, !tbaa !39
  %58 = load ptr, ptr %2, align 8, !tbaa !12
  %59 = getelementptr inbounds nuw %struct.mi_heap_s, ptr %58, i32 0, i32 6
  %60 = getelementptr inbounds [2 x i64], ptr %59, i64 0, i64 0
  call void @mi_block_set_nextx(ptr noundef %55, ptr noundef %56, ptr noundef %57, ptr noundef %60)
  br label %61

61:                                               ; preds = %54
  %62 = load ptr, ptr %2, align 8, !tbaa !12
  %63 = getelementptr inbounds nuw %struct.mi_heap_s, ptr %62, i32 0, i32 3
  %64 = load ptr, ptr %3, align 8, !tbaa !39
  store ptr %64, ptr %10, align 8, !tbaa !39
  %65 = load i64, ptr %8, align 8
  %66 = load i64, ptr %10, align 8
  %67 = cmpxchg weak ptr %63, i64 %65, i64 %66 release monotonic, align 8
  %68 = extractvalue { i64, i1 } %67, 0
  %69 = extractvalue { i64, i1 } %67, 1
  br i1 %69, label %71, label %70

70:                                               ; preds = %61
  store i64 %68, ptr %8, align 8
  br label %71

71:                                               ; preds = %70, %61
  %72 = zext i1 %69 to i8
  store i8 %72, ptr %11, align 1, !tbaa !28
  %73 = load i8, ptr %11, align 1, !tbaa !28, !range !30, !noundef !31
  %74 = trunc i8 %73 to i1
  %75 = xor i1 %74, true
  br i1 %75, label %54, label %76, !llvm.loop !51

76:                                               ; preds = %71
  call void @llvm.lifetime.end.p0(i64 8, ptr %8) #6
  br label %77

77:                                               ; preds = %76, %40
  %78 = load ptr, ptr %7, align 8, !tbaa !39
  store ptr %78, ptr %3, align 8, !tbaa !39
  call void @llvm.lifetime.end.p0(i64 8, ptr %7) #6
  br label %37, !llvm.loop !52

79:                                               ; preds = %37
  call void @llvm.lifetime.end.p0(i64 8, ptr %3) #6
  ret void
}

; Function Attrs: nounwind uwtable
define hidden void @_mi_deferred_free(ptr noundef %0, i1 noundef zeroext %1) #0 {
  %3 = alloca ptr, align 8
  %4 = alloca i8, align 1
  %5 = alloca ptr, align 8
  store ptr %0, ptr %3, align 8, !tbaa !12
  %6 = zext i1 %1 to i8
  store i8 %6, ptr %4, align 1, !tbaa !28
  %7 = load ptr, ptr %3, align 8, !tbaa !12
  %8 = getelementptr inbounds nuw %struct.mi_heap_s, ptr %7, i32 0, i32 0
  %9 = load ptr, ptr %8, align 8, !tbaa !58
  %10 = getelementptr inbounds nuw %struct.mi_tld_s, ptr %9, i32 0, i32 0
  %11 = load i64, ptr %10, align 8, !tbaa !64
  %12 = add i64 %11, 1
  store i64 %12, ptr %10, align 8, !tbaa !64
  %13 = load volatile ptr, ptr @deferred_free, align 8, !tbaa !53
  %14 = icmp ne ptr %13, null
  br i1 %14, label %15, label %41

15:                                               ; preds = %2
  %16 = load ptr, ptr %3, align 8, !tbaa !12
  %17 = getelementptr inbounds nuw %struct.mi_heap_s, ptr %16, i32 0, i32 0
  %18 = load ptr, ptr %17, align 8, !tbaa !58
  %19 = getelementptr inbounds nuw %struct.mi_tld_s, ptr %18, i32 0, i32 1
  %20 = load i8, ptr %19, align 8, !tbaa !74, !range !30, !noundef !31
  %21 = trunc i8 %20 to i1
  br i1 %21, label %41, label %22

22:                                               ; preds = %15
  %23 = load ptr, ptr %3, align 8, !tbaa !12
  %24 = getelementptr inbounds nuw %struct.mi_heap_s, ptr %23, i32 0, i32 0
  %25 = load ptr, ptr %24, align 8, !tbaa !58
  %26 = getelementptr inbounds nuw %struct.mi_tld_s, ptr %25, i32 0, i32 1
  store i8 1, ptr %26, align 8, !tbaa !74
  %27 = load volatile ptr, ptr @deferred_free, align 8, !tbaa !53
  %28 = load i8, ptr %4, align 1, !tbaa !28, !range !30, !noundef !31
  %29 = trunc i8 %28 to i1
  %30 = load ptr, ptr %3, align 8, !tbaa !12
  %31 = getelementptr inbounds nuw %struct.mi_heap_s, ptr %30, i32 0, i32 0
  %32 = load ptr, ptr %31, align 8, !tbaa !58
  %33 = getelementptr inbounds nuw %struct.mi_tld_s, ptr %32, i32 0, i32 0
  %34 = load i64, ptr %33, align 8, !tbaa !64
  %35 = load atomic i64, ptr @deferred_arg monotonic, align 8
  store i64 %35, ptr %5, align 8
  %36 = load ptr, ptr %5, align 8, !tbaa !53
  call void %27(i1 noundef zeroext %29, i64 noundef %34, ptr noundef %36)
  %37 = load ptr, ptr %3, align 8, !tbaa !12
  %38 = getelementptr inbounds nuw %struct.mi_heap_s, ptr %37, i32 0, i32 0
  %39 = load ptr, ptr %38, align 8, !tbaa !58
  %40 = getelementptr inbounds nuw %struct.mi_tld_s, ptr %39, i32 0, i32 1
  store i8 0, ptr %40, align 8, !tbaa !74
  br label %41

41:                                               ; preds = %22, %15, %2
  ret void
}

; Function Attrs: inlinehint nounwind uwtable
define internal ptr @mi_get_default_heap() #1 {
  %1 = call align 8 ptr @llvm.threadlocal.address.p0(ptr align 8 @_mi_heap_default)
  %2 = load ptr, ptr %1, align 8, !tbaa !12
  ret ptr %2
}

; Function Attrs: inlinehint nounwind uwtable
define internal zeroext i1 @mi_heap_is_initialized(ptr noundef %0) #1 {
  %2 = alloca ptr, align 8
  store ptr %0, ptr %2, align 8, !tbaa !12
  %3 = load ptr, ptr %2, align 8, !tbaa !12
  %4 = icmp ne ptr %3, @_mi_heap_empty
  ret i1 %4
}

; Function Attrs: nounwind uwtable
define hidden noalias ptr @_mi_malloc_generic(ptr noundef %0, i64 noundef %1) #0 {
  %3 = alloca ptr, align 8
  %4 = alloca ptr, align 8
  %5 = alloca i64, align 8
  %6 = alloca ptr, align 8
  %7 = alloca i64, align 8
  %8 = alloca i32, align 4
  store ptr %0, ptr %4, align 8, !tbaa !12
  store i64 %1, ptr %5, align 8, !tbaa !3
  %9 = load ptr, ptr %4, align 8, !tbaa !12
  %10 = call zeroext i1 @mi_heap_is_initialized(ptr noundef %9)
  %11 = xor i1 %10, true
  %12 = xor i1 %11, true
  %13 = xor i1 %12, true
  %14 = zext i1 %13 to i32
  %15 = sext i32 %14 to i64
  %16 = call i64 @llvm.expect.i64(i64 %15, i64 0)
  %17 = icmp ne i64 %16, 0
  br i1 %17, label %18, label %31

18:                                               ; preds = %2
  call void @mi_thread_init()
  %19 = call ptr @mi_get_default_heap()
  store ptr %19, ptr %4, align 8, !tbaa !12
  %20 = load ptr, ptr %4, align 8, !tbaa !12
  %21 = call zeroext i1 @mi_heap_is_initialized(ptr noundef %20)
  %22 = xor i1 %21, true
  %23 = xor i1 %22, true
  %24 = xor i1 %23, true
  %25 = zext i1 %24 to i32
  %26 = sext i32 %25 to i64
  %27 = call i64 @llvm.expect.i64(i64 %26, i64 0)
  %28 = icmp ne i64 %27, 0
  br i1 %28, label %29, label %30

29:                                               ; preds = %18
  store ptr null, ptr %3, align 8
  br label %69

30:                                               ; preds = %18
  br label %31

31:                                               ; preds = %30, %2
  %32 = load ptr, ptr %4, align 8, !tbaa !12
  call void @_mi_deferred_free(ptr noundef %32, i1 noundef zeroext false)
  %33 = load ptr, ptr %4, align 8, !tbaa !12
  call void @_mi_heap_delayed_free(ptr noundef %33)
  call void @llvm.lifetime.start.p0(i64 8, ptr %6) #6
  %34 = load ptr, ptr %4, align 8, !tbaa !12
  %35 = load i64, ptr %5, align 8, !tbaa !3
  %36 = call ptr @mi_find_page(ptr noundef %34, i64 noundef %35)
  store ptr %36, ptr %6, align 8, !tbaa !17
  %37 = load ptr, ptr %6, align 8, !tbaa !17
  %38 = icmp eq ptr %37, null
  %39 = xor i1 %38, true
  %40 = xor i1 %39, true
  %41 = zext i1 %40 to i32
  %42 = sext i32 %41 to i64
  %43 = call i64 @llvm.expect.i64(i64 %42, i64 0)
  %44 = icmp ne i64 %43, 0
  br i1 %44, label %45, label %50

45:                                               ; preds = %31
  %46 = load ptr, ptr %4, align 8, !tbaa !12
  call void @mi_heap_collect(ptr noundef %46, i1 noundef zeroext true)
  %47 = load ptr, ptr %4, align 8, !tbaa !12
  %48 = load i64, ptr %5, align 8, !tbaa !3
  %49 = call ptr @mi_find_page(ptr noundef %47, i64 noundef %48)
  store ptr %49, ptr %6, align 8, !tbaa !17
  br label %50

50:                                               ; preds = %45, %31
  %51 = load ptr, ptr %6, align 8, !tbaa !17
  %52 = icmp eq ptr %51, null
  %53 = xor i1 %52, true
  %54 = xor i1 %53, true
  %55 = zext i1 %54 to i32
  %56 = sext i32 %55 to i64
  %57 = call i64 @llvm.expect.i64(i64 %56, i64 0)
  %58 = icmp ne i64 %57, 0
  br i1 %58, label %59, label %63

59:                                               ; preds = %50
  call void @llvm.lifetime.start.p0(i64 8, ptr %7) #6
  %60 = load i64, ptr %5, align 8, !tbaa !3
  %61 = sub i64 %60, 0
  store i64 %61, ptr %7, align 8, !tbaa !3
  %62 = load i64, ptr %7, align 8, !tbaa !3
  call void (i32, ptr, ...) @_mi_error_message(i32 noundef 12, ptr noundef @.str, i64 noundef %62)
  store ptr null, ptr %3, align 8
  store i32 1, ptr %8, align 4
  call void @llvm.lifetime.end.p0(i64 8, ptr %7) #6
  br label %68

63:                                               ; preds = %50
  %64 = load ptr, ptr %4, align 8, !tbaa !12
  %65 = load ptr, ptr %6, align 8, !tbaa !17
  %66 = load i64, ptr %5, align 8, !tbaa !3
  %67 = call ptr @_mi_page_malloc(ptr noundef %64, ptr noundef %65, i64 noundef %66)
  store ptr %67, ptr %3, align 8
  store i32 1, ptr %8, align 4
  br label %68

68:                                               ; preds = %63, %59
  call void @llvm.lifetime.end.p0(i64 8, ptr %6) #6
  br label %69

69:                                               ; preds = %68, %29
  %70 = load ptr, ptr %3, align 8
  ret ptr %70
}