; Function Attrs: nounwind uwtable
define hidden noalias ptr @_mi_malloc_generic(ptr noundef %0, i64 noundef %1) local_unnamed_addr #1 {
  %.not = icmp eq ptr %0, @_mi_heap_empty
  br i1 %.not, label %3, label %6, !prof !25

3:                                                ; preds = %2
  tail call void @mi_thread_init() #8
  %4 = tail call align 8 ptr @llvm.threadlocal.address.p0(ptr align 8 @_mi_heap_default)
  %5 = load ptr, ptr %4, align 8, !tbaa !65
  %.not22 = icmp eq ptr %5, @_mi_heap_empty
  br i1 %.not22, label %46, label %6, !prof !25

6:                                                ; preds = %3, %2
  %.017 = phi ptr [ %5, %3 ], [ %0, %2 ]
  %7 = load ptr, ptr %.017, align 8, !tbaa !47
  %8 = load i64, ptr %7, align 8, !tbaa !51
  %9 = add i64 %8, 1
  store i64 %9, ptr %7, align 8, !tbaa !51
  %10 = load volatile ptr, ptr @deferred_free, align 8, !tbaa !61
  %.not.i = icmp eq ptr %10, null
  br i1 %.not.i, label %_mi_deferred_free.exit, label %11

11:                                               ; preds = %6
  %12 = getelementptr inbounds nuw i8, ptr %7, i64 8
  %13 = load i8, ptr %12, align 8, !tbaa !62, !range !63, !noundef !64
  %14 = trunc nuw i8 %13 to i1
  br i1 %14, label %_mi_deferred_free.exit, label %15

15:                                               ; preds = %11
  store i8 1, ptr %12, align 8, !tbaa !62
  %16 = load volatile ptr, ptr @deferred_free, align 8, !tbaa !61
  %17 = load atomic i64, ptr @deferred_arg monotonic, align 8
  %18 = inttoptr i64 %17 to ptr
  tail call void %16(i1 noundef zeroext false, i64 noundef %9, ptr noundef %18) #8
  %19 = load ptr, ptr %.017, align 8, !tbaa !47
  %20 = getelementptr inbounds nuw i8, ptr %19, i64 8
  store i8 0, ptr %20, align 8, !tbaa !62
  br label %_mi_deferred_free.exit

_mi_deferred_free.exit:                           ; preds = %6, %11, %15
  %21 = getelementptr inbounds nuw i8, ptr %.017, i64 2840
  %22 = load atomic i64, ptr %21 monotonic, align 8
  %.old1.not.i = icmp eq i64 %22, 0
  br i1 %.old1.not.i, label %_mi_heap_delayed_free.exit, label %.preheader.preheader.i

.preheader.preheader.i:                           ; preds = %_mi_deferred_free.exit
  %23 = inttoptr i64 %22 to ptr
  br label %.preheader.i

.preheader.i:                                     ; preds = %.preheader.i, %.preheader.preheader.i
  %.0.i = phi ptr [ %.1.i, %.preheader.i ], [ %23, %.preheader.preheader.i ]
  %24 = ptrtoint ptr %.0.i to i64
  %25 = cmpxchg weak ptr %21, i64 %24, i64 0 acq_rel acquire, align 8
  %26 = extractvalue { i64, i1 } %25, 1
  %27 = extractvalue { i64, i1 } %25, 0
  %28 = inttoptr i64 %27 to ptr
  %.1.i = select i1 %26, ptr %.0.i, ptr %28
  %29 = icmp eq ptr %.1.i, null
  %or.cond.not.i = select i1 %26, i1 true, i1 %29
  br i1 %or.cond.not.i, label %.critedge.i, label %.preheader.i, !llvm.loop !44

.critedge.i:                                      ; preds = %.preheader.i
  br i1 %29, label %_mi_heap_delayed_free.exit, label %.lr.ph.i

.lr.ph.i:                                         ; preds = %.critedge.i, %.loopexit.i
  %.329.i = phi ptr [ %30, %.loopexit.i ], [ %.1.i, %.critedge.i ]
  %.3.val.i = load i64, ptr %.329.i, align 8, !tbaa !28
  %30 = inttoptr i64 %.3.val.i to ptr
  %31 = tail call zeroext i1 @_mi_free_delayed_block(ptr noundef nonnull %.329.i) #8
  br i1 %31, label %.loopexit.i, label %32

32:                                               ; preds = %.lr.ph.i
  %33 = load atomic i64, ptr %21 monotonic, align 8
  %34 = ptrtoint ptr %.329.i to i64
  br label %35

35:                                               ; preds = %35, %32
  %.024.in.i = phi i64 [ %33, %32 ], [ %38, %35 ]
  store i64 %.024.in.i, ptr %.329.i, align 8, !tbaa !28
  %36 = cmpxchg weak ptr %21, i64 %.024.in.i, i64 %34 release monotonic, align 8
  %37 = extractvalue { i64, i1 } %36, 1
  %38 = extractvalue { i64, i1 } %36, 0
  br i1 %37, label %.loopexit.i, label %35, !llvm.loop !45

.loopexit.i:                                      ; preds = %35, %.lr.ph.i
  %.not.i19 = icmp eq i64 %.3.val.i, 0
  br i1 %.not.i19, label %_mi_heap_delayed_free.exit, label %.lr.ph.i, !llvm.loop !46

_mi_heap_delayed_free.exit:                       ; preds = %.loopexit.i, %_mi_deferred_free.exit, %.critedge.i
  %39 = tail call fastcc ptr @mi_find_page(ptr noundef nonnull %.017, i64 noundef %1)
  %40 = icmp eq ptr %39, null
  br i1 %40, label %41, label %.thread, !prof !25

41:                                               ; preds = %_mi_heap_delayed_free.exit
  tail call void @mi_heap_collect(ptr noundef nonnull %.017, i1 noundef zeroext true) #8
  %42 = tail call fastcc ptr @mi_find_page(ptr noundef nonnull %.017, i64 noundef %1)
  %43 = icmp eq ptr %42, null
  br i1 %43, label %44, label %.thread, !prof !66

44:                                               ; preds = %41
  tail call void (i32, ptr, ...) @_mi_error_message(i32 noundef 12, ptr noundef nonnull @.str, i64 noundef %1) #8
  br label %46

.thread:                                          ; preds = %_mi_heap_delayed_free.exit, %41
  %.01621 = phi ptr [ %42, %41 ], [ %39, %_mi_heap_delayed_free.exit ]
  %45 = tail call ptr @_mi_page_malloc(ptr noundef nonnull %.017, ptr noundef nonnull %.01621, i64 noundef %1) #8
  br label %46

46:                                               ; preds = %44, %.thread, %3
  %.0 = phi ptr [ null, %3 ], [ null, %44 ], [ %45, %.thread ]
  ret ptr %.0
}